; Function Attrs: nounwind uwtable
define range(i32 -32, 1) i32 @pmix20_bfrop_print_size(ptr noundef %0, ptr noundef %1, ptr noundef readonly captures(address_is_null) %2, i16 noundef zeroext %3) local_unnamed_addr #0 {
  %5 = alloca ptr, align 8
  call void @llvm.lifetime.start.p0(i64 8, ptr nonnull %5) #7
  %6 = icmp eq ptr %1, null
  br i1 %6, label %7, label %10

7:                                                ; preds = %4
  %8 = call i32 (ptr, ptr, ...) @asprintf(ptr noundef nonnull %5, ptr noundef nonnull @.str) #7
  %9 = icmp slt i32 %8, 0
  br i1 %9, label %25, label %11

10:                                               ; preds = %4
  store ptr %1, ptr %5, align 8, !tbaa !20
  br label %11

11:                                               ; preds = %7, %10
  %12 = icmp eq ptr %2, null
  %13 = load ptr, ptr %5, align 8, !tbaa !20
  br i1 %12, label %14, label %19

14:                                               ; preds = %11
  %15 = call i32 (ptr, ptr, ...) @asprintf(ptr noundef %0, ptr noundef nonnull @.str.9, ptr noundef %13) #7
  %16 = icmp slt i32 %15, 0
  br i1 %16, label %25, label %17

17:                                               ; preds = %14
  %18 = load ptr, ptr %5, align 8, !tbaa !20
  %.not12 = icmp eq ptr %18, %1
  br i1 %.not12, label %25, label %.sink.split

19:                                               ; preds = %11
  %20 = load i64, ptr %2, align 8, !tbaa !26
  %21 = call i32 (ptr, ptr, ...) @asprintf(ptr noundef %0, ptr noundef nonnull @.str.10, ptr noundef %13, i64 noundef %20) #7
  %22 = icmp slt i32 %21, 0
  br i1 %22, label %25, label %23

23:                                               ; preds = %19
  %24 = load ptr, ptr %5, align 8, !tbaa !20
  %.not = icmp eq ptr %24, %1
  br i1 %.not, label %25, label %.sink.split

.sink.split:                                      ; preds = %23, %17
  %.sink = phi ptr [ %18, %17 ], [ %24, %23 ]
  call void @free(ptr noundef %.sink) #7
  br label %25

25:                                               ; preds = %.sink.split, %23, %19, %17, %14, %7
  %.0 = phi i32 [ -32, %7 ], [ -32, %14 ], [ 0, %17 ], [ -32, %19 ], [ 0, %23 ], [ 0, %.sink.split ]
  call void @llvm.lifetime.end.p0(i64 8, ptr nonnull %5) #7
  ret i32 %.0
}